; ModuleID = '37/944.c'
source_filename = "37/944.c"
target datalayout = "e-m:e-p270:32:32-p271:32:32-p272:64:64-i64:64-f80:128-n8:16:32:64-S128"
target triple = "x86_64-pc-linux-gnu"

@.str = private unnamed_addr constant [3 x i8] c"%d\00", align 1
@.str.1 = private unnamed_addr constant [3 x i8] c"%s\00", align 1
@.str.2 = private unnamed_addr constant [4 x i8] c"%c\0A\00", align 1
@.str.3 = private unnamed_addr constant [4 x i8] c"no\0A\00", align 1

; Function Attrs: noinline nounwind uwtable
define dso_local i32 @main() #0 {
  %1 = alloca i32, align 4
  %2 = alloca i32, align 4
  %3 = alloca i32, align 4
  %4 = alloca i32, align 4
  %5 = alloca i32, align 4
  %6 = alloca [100001 x i8], align 16
  %7 = alloca i8*, align 8
  %8 = alloca i8*, align 8
  store i32 0, i32* %1, align 4
  store i32 0, i32* %4, align 4
  store i32 0, i32* %5, align 4
  %9 = call i32 (i8*, ...) @__isoc99_scanf(i8* getelementptr inbounds ([3 x i8], [3 x i8]* @.str, i64 0, i64 0), i32* %2)
  store i32 0, i32* %3, align 4
  br label %10

10:                                               ; preds = %77, %0
  %11 = load i32, i32* %3, align 4
  %12 = load i32, i32* %2, align 4
  %13 = icmp slt i32 %11, %12
  br i1 %13, label %14, label %80

14:                                               ; preds = %10
  store i32 0, i32* %5, align 4
  %15 = getelementptr inbounds [100001 x i8], [100001 x i8]* %6, i64 0, i64 0
  %16 = call i32 (i8*, ...) @__isoc99_scanf(i8* getelementptr inbounds ([3 x i8], [3 x i8]* @.str.1, i64 0, i64 0), i8* %15)
  %17 = getelementptr inbounds [100001 x i8], [100001 x i8]* %6, i64 0, i64 0
  store i8* %17, i8** %7, align 8
  br label %18

18:                                               ; preds = %68, %14
  %19 = load i8*, i8** %7, align 8
  %20 = getelementptr inbounds [100001 x i8], [100001 x i8]* %6, i64 0, i64 0
  %21 = getelementptr inbounds [100001 x i8], [100001 x i8]* %6, i64 0, i64 0
  %22 = call i64 @strlen(i8* %21) #3
  %23 = getelementptr inbounds i8, i8* %20, i64 %22
  %24 = icmp ult i8* %19, %23
  br i1 %24, label %25, label %71

25:                                               ; preds = %18
  %26 = getelementptr inbounds [100001 x i8], [100001 x i8]* %6, i64 0, i64 0
  store i8* %26, i8** %8, align 8
  br label %27

27:                                               ; preds = %50, %25
  %28 = load i8*, i8** %8, align 8
  %29 = getelementptr inbounds [100001 x i8], [100001 x i8]* %6, i64 0, i64 0
  %30 = getelementptr inbounds [100001 x i8], [100001 x i8]* %6, i64 0, i64 0
  %31 = call i64 @strlen(i8* %30) #3
  %32 = getelementptr inbounds i8, i8* %29, i64 %31
  %33 = icmp ult i8* %28, %32
  br i1 %33, label %34, label %53

34:                                               ; preds = %27
  %35 = load i8*, i8** %7, align 8
  %36 = load i8, i8* %35, align 1
  %37 = sext i8 %36 to i32
  %38 = load i8*, i8** %8, align 8
  %39 = load i8, i8* %38, align 1
  %40 = sext i8 %39 to i32
  %41 = icmp eq i32 %37, %40
  br i1 %41, label %42, label %45

42:                                               ; preds = %34
  %43 = load i32, i32* %4, align 4
  %44 = add nsw i32 %43, 1
  store i32 %44, i32* %4, align 4
  br label %45

45:                                               ; preds = %42, %34
  %46 = load i32, i32* %4, align 4
  %47 = icmp eq i32 %46, 2
  br i1 %47, label %48, label %49

48:                                               ; preds = %45
  store i32 0, i32* %4, align 4
  br label %53

49:                                               ; preds = %45
  br label %50

50:                                               ; preds = %49
  %51 = load i8*, i8** %8, align 8
  %52 = getelementptr inbounds i8, i8* %51, i32 1
  store i8* %52, i8** %8, align 8
  br label %27

53:                                               ; preds = %48, %27
  %54 = load i8*, i8** %8, align 8
  %55 = getelementptr inbounds [100001 x i8], [100001 x i8]* %6, i64 0, i64 0
  %56 = getelementptr inbounds [100001 x i8], [100001 x i8]* %6, i64 0, i64 0
  %57 = call i64 @strlen(i8* %56) #3
  %58 = getelementptr inbounds i8, i8* %55, i64 %57
  %59 = icmp eq i8* %54, %58
  br i1 %59, label %60, label %67

60:                                               ; preds = %53
  %61 = load i8*, i8** %7, align 8
  %62 = load i8, i8* %61, align 1
  %63 = sext i8 %62 to i32
  %64 = call i32 (i8*, ...) @printf(i8* getelementptr inbounds ([4 x i8], [4 x i8]* @.str.2, i64 0, i64 0), i32 %63)
  store i32 0, i32* %4, align 4
  %65 = load i32, i32* %5, align 4
  %66 = add nsw i32 %65, 1
  store i32 %66, i32* %5, align 4
  br label %71

67:                                               ; preds = %53
  br label %68

68:                                               ; preds = %67
  %69 = load i8*, i8** %7, align 8
  %70 = getelementptr inbounds i8, i8* %69, i32 1
  store i8* %70, i8** %7, align 8
  br label %18

71:                                               ; preds = %60, %18
  %72 = load i32, i32* %5, align 4
  %73 = icmp eq i32 %72, 0
  br i1 %73, label %74, label %76

74:                                               ; preds = %71
  %75 = call i32 (i8*, ...) @printf(i8* getelementptr inbounds ([4 x i8], [4 x i8]* @.str.3, i64 0, i64 0))
  br label %76

76:                                               ; preds = %74, %71
  br label %77

77:                                               ; preds = %76
  %78 = load i32, i32* %3, align 4
  %79 = add nsw i32 %78, 1
  store i32 %79, i32* %3, align 4
  br label %10

80:                                               ; preds = %10
  ret i32 0
}

declare dso_local i32 @__isoc99_scanf(i8*, ...) #1

; Function Attrs: nounwind readonly
declare dso_local i64 @strlen(i8*) #2

declare dso_local i32 @printf(i8*, ...) #1


!llvm.module.flags = !{!0}
!llvm.ident = !{!1}

!0 = !{i32 1, !"wchar_size", i32 4}
!1 = !{!"clang version 10.0.0-4ubuntu1 "}
